; 4-jumptable.c w/ gcc optimizations for size, 32-bit x86
; A comparison of implementations for large conditional statements.
;       switch statements
;       function pointers
;       goto labels
; Assembly output commented by Eugene Ma
; gcc -Os 4-jumptable.c && objdump -D a.out > 4-jumptable_OsOpt.s

a.out:     file format elf32-i386


Disassembly of section .init:

080482fc <_init>:
 80482fc:	53                   	push   %ebx
 80482fd:	83 ec 08             	sub    $0x8,%esp
 8048300:	e8 00 00 00 00       	call   8048305 <_init+0x9>
 8048305:	5b                   	pop    %ebx
 8048306:	81 c3 ef 19 00 00    	add    $0x19ef,%ebx
 804830c:	8b 83 fc ff ff ff    	mov    -0x4(%ebx),%eax
 8048312:	85 c0                	test   %eax,%eax
 8048314:	74 05                	je     804831b <_init+0x1f>
 8048316:	e8 21 00 00 00       	call   804833c <__gmon_start__@plt>
 804831b:	e8 10 01 00 00       	call   8048430 <frame_dummy>
 8048320:	e8 cb 03 00 00       	call   80486f0 <__do_global_ctors_aux>
 8048325:	83 c4 08             	add    $0x8,%esp
 8048328:	5b                   	pop    %ebx
 8048329:	c3                   	ret    

Disassembly of section .plt:

0804832c <__gmon_start__@plt-0x10>:
 804832c:	ff 35 f8 9c 04 08    	pushl  0x8049cf8
 8048332:	ff 25 fc 9c 04 08    	jmp    *0x8049cfc
 8048338:	00 00                	add    %al,(%eax)
	...

0804833c <__gmon_start__@plt>:
 804833c:	ff 25 00 9d 04 08    	jmp    *0x8049d00
 8048342:	68 00 00 00 00       	push   $0x0
 8048347:	e9 e0 ff ff ff       	jmp    804832c <_init+0x30>

0804834c <__libc_start_main@plt>:
 804834c:	ff 25 04 9d 04 08    	jmp    *0x8049d04
 8048352:	68 08 00 00 00       	push   $0x8
 8048357:	e9 d0 ff ff ff       	jmp    804832c <_init+0x30>

0804835c <printf@plt>:
 804835c:	ff 25 08 9d 04 08    	jmp    *0x8049d08
 8048362:	68 10 00 00 00       	push   $0x10
 8048367:	e9 c0 ff ff ff       	jmp    804832c <_init+0x30>

0804836c <puts@plt>:
 804836c:	ff 25 0c 9d 04 08    	jmp    *0x8049d0c
 8048372:	68 18 00 00 00       	push   $0x18
 8048377:	e9 b0 ff ff ff       	jmp    804832c <_init+0x30>

Disassembly of section .text:

08048380 <main>:
 8048380:	8d 4c 24 04          	lea    0x4(%esp),%ecx
 8048384:	83 e4 f0             	and    $0xfffffff0,%esp
 8048387:	ff 71 fc             	pushl  -0x4(%ecx)
 804838a:	55                   	push   %ebp
 804838b:	89 e5                	mov    %esp,%ebp
 804838d:	51                   	push   %ecx
 804838e:	50                   	push   %eax
 804838f:	e8 94 01 00 00       	call   8048528 <switch_helper>
 8048394:	e8 1c 02 00 00       	call   80485b5 <func_helper>
 8048399:	e8 99 02 00 00       	call   8048637 <goto_helper>
 804839e:	31 c0                	xor    %eax,%eax
 80483a0:	5a                   	pop    %edx
 80483a1:	59                   	pop    %ecx
 80483a2:	5d                   	pop    %ebp
 80483a3:	8d 61 fc             	lea    -0x4(%ecx),%esp
 80483a6:	c3                   	ret    
 80483a7:	90                   	nop

080483a8 <_start>:
 80483a8:	31 ed                	xor    %ebp,%ebp
 80483aa:	5e                   	pop    %esi
 80483ab:	89 e1                	mov    %esp,%ecx
 80483ad:	83 e4 f0             	and    $0xfffffff0,%esp
 80483b0:	50                   	push   %eax
 80483b1:	54                   	push   %esp
 80483b2:	52                   	push   %edx
 80483b3:	68 e0 86 04 08       	push   $0x80486e0
 80483b8:	68 70 86 04 08       	push   $0x8048670
 80483bd:	51                   	push   %ecx
 80483be:	56                   	push   %esi
 80483bf:	68 80 83 04 08       	push   $0x8048380
 80483c4:	e8 83 ff ff ff       	call   804834c <__libc_start_main@plt>
 80483c9:	f4                   	hlt    
 80483ca:	90                   	nop
 80483cb:	90                   	nop
 80483cc:	90                   	nop
 80483cd:	90                   	nop
 80483ce:	90                   	nop
 80483cf:	90                   	nop

080483d0 <__do_global_dtors_aux>:
 80483d0:	55                   	push   %ebp
 80483d1:	89 e5                	mov    %esp,%ebp
 80483d3:	53                   	push   %ebx
 80483d4:	83 ec 04             	sub    $0x4,%esp
 80483d7:	80 3d 18 9d 04 08 00 	cmpb   $0x0,0x8049d18
 80483de:	75 3f                	jne    804841f <__do_global_dtors_aux+0x4f>
 80483e0:	a1 1c 9d 04 08       	mov    0x8049d1c,%eax
 80483e5:	bb 18 9c 04 08       	mov    $0x8049c18,%ebx
 80483ea:	81 eb 14 9c 04 08    	sub    $0x8049c14,%ebx
 80483f0:	c1 fb 02             	sar    $0x2,%ebx
 80483f3:	83 eb 01             	sub    $0x1,%ebx
 80483f6:	39 d8                	cmp    %ebx,%eax
 80483f8:	73 1e                	jae    8048418 <__do_global_dtors_aux+0x48>
 80483fa:	8d b6 00 00 00 00    	lea    0x0(%esi),%esi
 8048400:	83 c0 01             	add    $0x1,%eax
 8048403:	a3 1c 9d 04 08       	mov    %eax,0x8049d1c
 8048408:	ff 14 85 14 9c 04 08 	call   *0x8049c14(,%eax,4)
 804840f:	a1 1c 9d 04 08       	mov    0x8049d1c,%eax
 8048414:	39 d8                	cmp    %ebx,%eax
 8048416:	72 e8                	jb     8048400 <__do_global_dtors_aux+0x30>
 8048418:	c6 05 18 9d 04 08 01 	movb   $0x1,0x8049d18
 804841f:	83 c4 04             	add    $0x4,%esp
 8048422:	5b                   	pop    %ebx
 8048423:	5d                   	pop    %ebp
 8048424:	c3                   	ret    
 8048425:	8d 74 26 00          	lea    0x0(%esi,%eiz,1),%esi
 8048429:	8d bc 27 00 00 00 00 	lea    0x0(%edi,%eiz,1),%edi

08048430 <frame_dummy>:
 8048430:	55                   	push   %ebp
 8048431:	89 e5                	mov    %esp,%ebp
 8048433:	83 ec 18             	sub    $0x18,%esp
 8048436:	a1 1c 9c 04 08       	mov    0x8049c1c,%eax
 804843b:	85 c0                	test   %eax,%eax
 804843d:	74 12                	je     8048451 <frame_dummy+0x21>
 804843f:	b8 00 00 00 00       	mov    $0x0,%eax
 8048444:	85 c0                	test   %eax,%eax
 8048446:	74 09                	je     8048451 <frame_dummy+0x21>
 8048448:	c7 04 24 1c 9c 04 08 	movl   $0x8049c1c,(%esp)
 804844f:	ff d0                	call   *%eax
 8048451:	c9                   	leave  
 8048452:	c3                   	ret    
 8048453:	90                   	nop

08048454 <sub>:
 8048454:	55                   	push   %ebp
 8048455:	89 e5                	mov    %esp,%ebp
 8048457:	8b 45 08             	mov    0x8(%ebp),%eax
 804845a:	2b 45 0c             	sub    0xc(%ebp),%eax
 804845d:	5d                   	pop    %ebp
 804845e:	c3                   	ret    

0804845f <mul>:
 804845f:	55                   	push   %ebp
 8048460:	89 e5                	mov    %esp,%ebp
 8048462:	8b 45 0c             	mov    0xc(%ebp),%eax
 8048465:	0f af 45 08          	imul   0x8(%ebp),%eax
 8048469:	5d                   	pop    %ebp
 804846a:	c3                   	ret    

0804846b <div>:
 804846b:	55                   	push   %ebp
 804846c:	89 e5                	mov    %esp,%ebp
 804846e:	8b 45 08             	mov    0x8(%ebp),%eax
 8048471:	99                   	cltd   
 8048472:	f7 7d 0c             	idivl  0xc(%ebp)
 8048475:	5d                   	pop    %ebp
 8048476:	c3                   	ret    

08048477 <print_func.1740>:
 8048477:	55                   	push   %ebp
 8048478:	89 e5                	mov    %esp,%ebp
 804847a:	57                   	push   %edi
 804847b:	89 cf                	mov    %ecx,%edi
 804847d:	56                   	push   %esi
 804847e:	89 d6                	mov    %edx,%esi
 8048480:	53                   	push   %ebx
 8048481:	89 c3                	mov    %eax,%ebx
 8048483:	83 ec 14             	sub    $0x14,%esp
 8048486:	51                   	push   %ecx
 8048487:	52                   	push   %edx
 8048488:	ff 14 85 50 88 04 08 	call   *0x8048850(,%eax,4)
 804848f:	89 04 24             	mov    %eax,(%esp)
 8048492:	57                   	push   %edi
 8048493:	56                   	push   %esi
 8048494:	53                   	push   %ebx
 8048495:	68 40 87 04 08       	push   $0x8048740
 804849a:	e8 bd fe ff ff       	call   804835c <printf@plt>
 804849f:	83 c4 20             	add    $0x20,%esp
 80484a2:	8d 65 f4             	lea    -0xc(%ebp),%esp
 80484a5:	5b                   	pop    %ebx
 80484a6:	5e                   	pop    %esi
 80484a7:	5f                   	pop    %edi
 80484a8:	5d                   	pop    %ebp
 80484a9:	c3                   	ret    

;;;;;;;;;;;;;;;;;;;;;;;;;;;;;;;;;;;;;;;;;;;;;;;;;;;;;;;;;;;;;;;;;;;;;;;;;;;
;;;;;;;;;;;;;;;;;;;;;;;;;;;;;;;;;;;;;;;;;;;;;;;;;;;;;;;;;;;;;;;;;;;;;;;;;;;
;;;;;;;;;;;;;;;;;;;;;;;;;;;;;;;;;;;;;;;;;;;;;;;;;;;;;;;;;;;;;;;;;;;;;;;;;;;

; Optimizations: just some general instruction reconciliation

;int switch_dispatch(int op, int x, int y)
080484aa <switch_dispatch>:
 80484aa:	55                   	push   %ebp ; save frame pointer
 80484ab:	89 e5                	mov    %esp,%ebp ; update frame pointer
 80484ad:	83 ec 08             	sub    $0x8,%esp ; allocate local storage
 80484b0:	8b 55 08             	mov    0x8(%ebp),%edx ; %edx = op
 80484b3:	8b 45 0c             	mov    0xc(%ebp),%eax ; %eax = x
 80484b6:	8b 4d 10             	mov    0x10(%ebp),%ecx ; %ecx = y
 80484b9:	83 fa 14             	cmp    $0x14,%edx ; compare op and 20
 80484bc:	77 33                	ja     80484f1 <switch_dispatch+0x47> ; jump to error if above
 80484be:	ff 24 95 fc 87 04 08 	jmp    *0x80487fc(,%edx,4) ; otherwise jump to the address indexed in the jump table @ 0x80487fc
 80484c5:	01 c8                	add    %ecx,%eax ; %eax = x + y
 80484c7:	eb 2b                	jmp    80484f4 <switch_dispatch+0x4a> ; done
 80484c9:	0f af c1             	imul   %ecx,%eax ; %eax = x * y
 80484cc:	eb 26                	jmp    80484f4 <switch_dispatch+0x4a> ; done
 80484ce:	99                   	cltd   ; prepare %edx:%eax for division 
 80484cf:	f7 f9                	idiv   %ecx ; %eax = quotient of %edx:%eax / %ecx
 80484d1:	eb 21                	jmp    80484f4 <switch_dispatch+0x4a> ; done
 80484d3:	29 c8                	sub    %ecx,%eax ; %eax = x - y
 80484d5:	eb 1d                	jmp    80484f4 <switch_dispatch+0x4a> ; done
 80484d7:	83 ec 0c             	sub    $0xc,%esp ; allocate 12 bytes for stack alignment
 80484da:	68 5b 87 04 08       	push   $0x804875b ; load string address on stack
 80484df:	eb 08                	jmp    80484e9 <switch_dispatch+0x3f> ; 0x80484e9
 80484e1:	83 ec 0c             	sub    $0xc,%esp ; allocate 12 bytes for stack alignment
 80484e4:	68 90 87 04 08       	push   $0x8048790 ; load string address on stack
 80484e9:	e8 7e fe ff ff       	call   804836c <puts@plt> ; call glibc puts
 80484ee:	83 c4 10             	add    $0x10,%esp ; clean up stack (16 bytes)
 80484f1:	83 c8 ff             	or     $0xffffffff,%eax ; put -1 return value in %eax
 80484f4:	c9                   	leave  ; all branches eventually reach here
 80484f5:	c3                   	ret    

;;;;;;;;;;;;;;;;;;;;;;;;;;;;;;;;;;;;;;;;;;;;;;;;;;;;;;;;;;;;;;;;;;;;;;;;;;;
;;;;;;;;;;;;;;;;;;;;;;;;;;;;;;;;;;;;;;;;;;;;;;;;;;;;;;;;;;;;;;;;;;;;;;;;;;;
;;;;;;;;;;;;;;;;;;;;;;;;;;;;;;;;;;;;;;;;;;;;;;;;;;;;;;;;;;;;;;;;;;;;;;;;;;;

080484f6 <print_sw.1708>:
 80484f6:	55                   	push   %ebp
 80484f7:	89 e5                	mov    %esp,%ebp
 80484f9:	57                   	push   %edi
 80484fa:	89 cf                	mov    %ecx,%edi
 80484fc:	56                   	push   %esi
 80484fd:	89 d6                	mov    %edx,%esi
 80484ff:	53                   	push   %ebx
 8048500:	89 c3                	mov    %eax,%ebx
 8048502:	83 ec 10             	sub    $0x10,%esp
 8048505:	51                   	push   %ecx
 8048506:	52                   	push   %edx
 8048507:	50                   	push   %eax
 8048508:	e8 9d ff ff ff       	call   80484aa <switch_dispatch>
 804850d:	89 04 24             	mov    %eax,(%esp)
 8048510:	57                   	push   %edi
 8048511:	56                   	push   %esi
 8048512:	53                   	push   %ebx
 8048513:	68 c6 87 04 08       	push   $0x80487c6
 8048518:	e8 3f fe ff ff       	call   804835c <printf@plt>
 804851d:	83 c4 20             	add    $0x20,%esp
 8048520:	8d 65 f4             	lea    -0xc(%ebp),%esp
 8048523:	5b                   	pop    %ebx
 8048524:	5e                   	pop    %esi
 8048525:	5f                   	pop    %edi
 8048526:	5d                   	pop    %ebp
 8048527:	c3                   	ret    

08048528 <switch_helper>:
 8048528:	55                   	push   %ebp
 8048529:	b9 05 00 00 00       	mov    $0x5,%ecx
 804852e:	89 e5                	mov    %esp,%ebp
 8048530:	ba 04 00 00 00       	mov    $0x4,%edx
 8048535:	83 ec 08             	sub    $0x8,%esp
 8048538:	31 c0                	xor    %eax,%eax
 804853a:	e8 b7 ff ff ff       	call   80484f6 <print_sw.1708>
 804853f:	b9 02 00 00 00       	mov    $0x2,%ecx
 8048544:	ba 08 00 00 00       	mov    $0x8,%edx
 8048549:	b8 03 00 00 00       	mov    $0x3,%eax
 804854e:	e8 a3 ff ff ff       	call   80484f6 <print_sw.1708>
 8048553:	51                   	push   %ecx
 8048554:	6a 00                	push   $0x0
 8048556:	6a 00                	push   $0x0
 8048558:	6a 07                	push   $0x7
 804855a:	e8 4b ff ff ff       	call   80484aa <switch_dispatch>
 804855f:	83 c4 0c             	add    $0xc,%esp
 8048562:	6a 00                	push   $0x0
 8048564:	6a 00                	push   $0x0
 8048566:	6a 0a                	push   $0xa
 8048568:	e8 3d ff ff ff       	call   80484aa <switch_dispatch>
 804856d:	83 c4 0c             	add    $0xc,%esp
 8048570:	6a 00                	push   $0x0
 8048572:	6a 00                	push   $0x0
 8048574:	6a 0f                	push   $0xf
 8048576:	e8 2f ff ff ff       	call   80484aa <switch_dispatch>
 804857b:	83 c4 0c             	add    $0xc,%esp
 804857e:	6a 00                	push   $0x0
 8048580:	6a 00                	push   $0x0
 8048582:	6a 14                	push   $0x14
 8048584:	e8 21 ff ff ff       	call   80484aa <switch_dispatch>
 8048589:	83 c4 10             	add    $0x10,%esp
 804858c:	c9                   	leave  
 804858d:	c3                   	ret    

0804858e <add>:
 804858e:	55                   	push   %ebp ; save %ebp
 804858f:	89 e5                	mov    %esp,%ebp ; update %ebp
 8048591:	8b 45 0c             	mov    0xc(%ebp),%eax ; %eax = y
 8048594:	03 45 08             	add    0x8(%ebp),%eax ; %eax = x + y
 8048597:	5d                   	pop    %ebp ; restore %ebp
 8048598:	c3                   	ret    ; return directly to caller of func_dispatch!

;;;;;;;;;;;;;;;;;;;;;;;;;;;;;;;;;;;;;;;;;;;;;;;;;;;;;;;;;;;;;;;;;;;;;;;;;;;
;;;;;;;;;;;;;;;;;;;;;;;;;;;;;;;;;;;;;;;;;;;;;;;;;;;;;;;;;;;;;;;;;;;;;;;;;;;
;;;;;;;;;;;;;;;;;;;;;;;;;;;;;;;;;;;;;;;;;;;;;;;;;;;;;;;;;;;;;;;;;;;;;;;;;;;

; This is an interesting one. Instead of loading the stack with arguments that
; would eventually be unloaded by the appropriate function, func_dispatch only
; rearranges the arguments on the stack before transferring control to the 
; operation handler. %esp doesn't change.

08048599 <func_dispatch>:
 8048599:	55                   	push   %ebp ; save %ebp
 804859a:	89 e5                	mov    %esp,%ebp ; update %ebp
 804859c:	8b 45 08             	mov    0x8(%ebp),%eax ; %eax = op
 804859f:	8b 55 0c             	mov    0xc(%ebp),%edx ; %edx = x
 80485a2:	8b 4d 10             	mov    0x10(%ebp),%ecx ; %ecx = y
 80485a5:	8b 04 85 50 88 04 08 	mov    0x8048850(,%eax,4),%eax ; index into jump table, store jump address in %eax
 80485ac:	89 55 08             	mov    %edx,0x8(%ebp) ; first arg = x
 80485af:	89 4d 0c             	mov    %ecx,0xc(%ebp) ; second arg = y
 80485b2:	5d                   	pop    %ebp ; restore %ebp
 80485b3:	ff e0                	jmp    *%eax ; pass control to [%eax], don't save %eip!

;;;;;;;;;;;;;;;;;;;;;;;;;;;;;;;;;;;;;;;;;;;;;;;;;;;;;;;;;;;;;;;;;;;;;;;;;;;
;;;;;;;;;;;;;;;;;;;;;;;;;;;;;;;;;;;;;;;;;;;;;;;;;;;;;;;;;;;;;;;;;;;;;;;;;;;
;;;;;;;;;;;;;;;;;;;;;;;;;;;;;;;;;;;;;;;;;;;;;;;;;;;;;;;;;;;;;;;;;;;;;;;;;;;

080485b5 <func_helper>:
 80485b5:	55                   	push   %ebp
 80485b6:	b9 05 00 00 00       	mov    $0x5,%ecx
 80485bb:	89 e5                	mov    %esp,%ebp
 80485bd:	ba 04 00 00 00       	mov    $0x4,%edx
 80485c2:	83 ec 08             	sub    $0x8,%esp
 80485c5:	31 c0                	xor    %eax,%eax
 80485c7:	e8 ab fe ff ff       	call   8048477 <print_func.1740>
 80485cc:	b9 02 00 00 00       	mov    $0x2,%ecx
 80485d1:	ba 08 00 00 00       	mov    $0x8,%edx
 80485d6:	b8 03 00 00 00       	mov    $0x3,%eax
 80485db:	e8 97 fe ff ff       	call   8048477 <print_func.1740>
 80485e0:	c9                   	leave  
 80485e1:	c3                   	ret    

;;;;;;;;;;;;;;;;;;;;;;;;;;;;;;;;;;;;;;;;;;;;;;;;;;;;;;;;;;;;;;;;;;;;;;;;;;;
;;;;;;;;;;;;;;;;;;;;;;;;;;;;;;;;;;;;;;;;;;;;;;;;;;;;;;;;;;;;;;;;;;;;;;;;;;;
;;;;;;;;;;;;;;;;;;;;;;;;;;;;;;;;;;;;;;;;;;;;;;;;;;;;;;;;;;;;;;;;;;;;;;;;;;;

; With -Os optimization, goto_dispatch reconciles all the data transfer
; of passed arguments from stack to registers to the beginning of the
; subroutine. And a bit smarter about which registers to use for arguments.

080485e2 <goto_dispatch>:
 80485e2:	55                   	push   %ebp ; save %ebp
 80485e3:	89 e5                	mov    %esp,%ebp ; update %ebp
 80485e5:	8b 55 08             	mov    0x8(%ebp),%edx ; %edx = op
 80485e8:	8b 45 0c             	mov    0xc(%ebp),%eax ; %eax = x
 80485eb:	8b 4d 10             	mov    0x10(%ebp),%ecx ; %ecx = y
 80485ee:	ff 24 95 60 88 04 08 	jmp    *0x8048860(,%edx,4) ; index into jump table
 80485f5:	01 c8                	add    %ecx,%eax ; %eax = x + y
 80485f7:	eb 0c                	jmp    8048605 <goto_dispatch+0x23> ; done
 80485f9:	29 c8                	sub    %ecx,%eax ; %eax = x - y
 80485fb:	eb 08                	jmp    8048605 <goto_dispatch+0x23> ; done
 80485fd:	0f af c1             	imul   %ecx,%eax ; %eax = x * y
 8048600:	eb 03                	jmp    8048605 <goto_dispatch+0x23> ; done
 8048602:	99                   	cltd   ; prepare %edx:%eax
 8048603:	f7 f9                	idiv   %ecx ; %eax = quotient of %edx:%eax / %ecx
 8048605:	5d                   	pop    %ebp ; restore %ebp
 8048606:	c3                   	ret 

;;;;;;;;;;;;;;;;;;;;;;;;;;;;;;;;;;;;;;;;;;;;;;;;;;;;;;;;;;;;;;;;;;;;;;;;;;;
;;;;;;;;;;;;;;;;;;;;;;;;;;;;;;;;;;;;;;;;;;;;;;;;;;;;;;;;;;;;;;;;;;;;;;;;;;;
;;;;;;;;;;;;;;;;;;;;;;;;;;;;;;;;;;;;;;;;;;;;;;;;;;;;;;;;;;;;;;;;;;;;;;;;;;;

08048607 <print_goto.1758>:
 8048607:	55                   	push   %ebp
 8048608:	89 e5                	mov    %esp,%ebp
 804860a:	57                   	push   %edi
 804860b:	89 cf                	mov    %ecx,%edi
 804860d:	56                   	push   %esi
 804860e:	89 d6                	mov    %edx,%esi
 8048610:	53                   	push   %ebx
 8048611:	89 c3                	mov    %eax,%ebx
 8048613:	83 ec 0c             	sub    $0xc,%esp
 8048616:	51                   	push   %ecx
 8048617:	52                   	push   %edx
 8048618:	50                   	push   %eax
 8048619:	e8 c4 ff ff ff       	call   80485e2 <goto_dispatch>
 804861e:	50                   	push   %eax
 804861f:	57                   	push   %edi
 8048620:	56                   	push   %esi
 8048621:	53                   	push   %ebx
 8048622:	68 e1 87 04 08       	push   $0x80487e1
 8048627:	e8 30 fd ff ff       	call   804835c <printf@plt>
 804862c:	83 c4 20             	add    $0x20,%esp
 804862f:	8d 65 f4             	lea    -0xc(%ebp),%esp
 8048632:	5b                   	pop    %ebx
 8048633:	5e                   	pop    %esi
 8048634:	5f                   	pop    %edi
 8048635:	5d                   	pop    %ebp
 8048636:	c3                   	ret    

08048637 <goto_helper>:
 8048637:	55                   	push   %ebp
 8048638:	b9 05 00 00 00       	mov    $0x5,%ecx
 804863d:	89 e5                	mov    %esp,%ebp
 804863f:	ba 04 00 00 00       	mov    $0x4,%edx
 8048644:	83 ec 08             	sub    $0x8,%esp
 8048647:	31 c0                	xor    %eax,%eax
 8048649:	e8 b9 ff ff ff       	call   8048607 <print_goto.1758>
 804864e:	b9 02 00 00 00       	mov    $0x2,%ecx
 8048653:	ba 08 00 00 00       	mov    $0x8,%edx
 8048658:	b8 03 00 00 00       	mov    $0x3,%eax
 804865d:	e8 a5 ff ff ff       	call   8048607 <print_goto.1758>
 8048662:	c9                   	leave  
 8048663:	c3                   	ret    
 8048664:	90                   	nop
 8048665:	90                   	nop
 8048666:	90                   	nop
 8048667:	90                   	nop
 8048668:	90                   	nop
 8048669:	90                   	nop
 804866a:	90                   	nop
 804866b:	90                   	nop
 804866c:	90                   	nop
 804866d:	90                   	nop
 804866e:	90                   	nop
 804866f:	90                   	nop

08048670 <__libc_csu_init>:
 8048670:	55                   	push   %ebp
 8048671:	57                   	push   %edi
 8048672:	56                   	push   %esi
 8048673:	53                   	push   %ebx
 8048674:	e8 69 00 00 00       	call   80486e2 <__i686.get_pc_thunk.bx>
 8048679:	81 c3 7b 16 00 00    	add    $0x167b,%ebx
 804867f:	83 ec 1c             	sub    $0x1c,%esp
 8048682:	8b 6c 24 30          	mov    0x30(%esp),%ebp
 8048686:	8d bb 18 ff ff ff    	lea    -0xe8(%ebx),%edi
 804868c:	e8 6b fc ff ff       	call   80482fc <_init>
 8048691:	8d 83 18 ff ff ff    	lea    -0xe8(%ebx),%eax
 8048697:	29 c7                	sub    %eax,%edi
 8048699:	c1 ff 02             	sar    $0x2,%edi
 804869c:	85 ff                	test   %edi,%edi
 804869e:	74 29                	je     80486c9 <__libc_csu_init+0x59>
 80486a0:	31 f6                	xor    %esi,%esi
 80486a2:	8d b6 00 00 00 00    	lea    0x0(%esi),%esi
 80486a8:	8b 44 24 38          	mov    0x38(%esp),%eax
 80486ac:	89 2c 24             	mov    %ebp,(%esp)
 80486af:	89 44 24 08          	mov    %eax,0x8(%esp)
 80486b3:	8b 44 24 34          	mov    0x34(%esp),%eax
 80486b7:	89 44 24 04          	mov    %eax,0x4(%esp)
 80486bb:	ff 94 b3 18 ff ff ff 	call   *-0xe8(%ebx,%esi,4)
 80486c2:	83 c6 01             	add    $0x1,%esi
 80486c5:	39 fe                	cmp    %edi,%esi
 80486c7:	75 df                	jne    80486a8 <__libc_csu_init+0x38>
 80486c9:	83 c4 1c             	add    $0x1c,%esp
 80486cc:	5b                   	pop    %ebx
 80486cd:	5e                   	pop    %esi
 80486ce:	5f                   	pop    %edi
 80486cf:	5d                   	pop    %ebp
 80486d0:	c3                   	ret    
 80486d1:	eb 0d                	jmp    80486e0 <__libc_csu_fini>
 80486d3:	90                   	nop
 80486d4:	90                   	nop
 80486d5:	90                   	nop
 80486d6:	90                   	nop
 80486d7:	90                   	nop
 80486d8:	90                   	nop
 80486d9:	90                   	nop
 80486da:	90                   	nop
 80486db:	90                   	nop
 80486dc:	90                   	nop
 80486dd:	90                   	nop
 80486de:	90                   	nop
 80486df:	90                   	nop

080486e0 <__libc_csu_fini>:
 80486e0:	f3 c3                	repz ret 

080486e2 <__i686.get_pc_thunk.bx>:
 80486e2:	8b 1c 24             	mov    (%esp),%ebx
 80486e5:	c3                   	ret    
 80486e6:	90                   	nop
 80486e7:	90                   	nop
 80486e8:	90                   	nop
 80486e9:	90                   	nop
 80486ea:	90                   	nop
 80486eb:	90                   	nop
 80486ec:	90                   	nop
 80486ed:	90                   	nop
 80486ee:	90                   	nop
 80486ef:	90                   	nop

080486f0 <__do_global_ctors_aux>:
 80486f0:	55                   	push   %ebp
 80486f1:	89 e5                	mov    %esp,%ebp
 80486f3:	53                   	push   %ebx
 80486f4:	83 ec 04             	sub    $0x4,%esp
 80486f7:	a1 0c 9c 04 08       	mov    0x8049c0c,%eax
 80486fc:	83 f8 ff             	cmp    $0xffffffff,%eax
 80486ff:	74 13                	je     8048714 <__do_global_ctors_aux+0x24>
 8048701:	bb 0c 9c 04 08       	mov    $0x8049c0c,%ebx
 8048706:	66 90                	xchg   %ax,%ax
 8048708:	83 eb 04             	sub    $0x4,%ebx
 804870b:	ff d0                	call   *%eax
 804870d:	8b 03                	mov    (%ebx),%eax
 804870f:	83 f8 ff             	cmp    $0xffffffff,%eax
 8048712:	75 f4                	jne    8048708 <__do_global_ctors_aux+0x18>
 8048714:	83 c4 04             	add    $0x4,%esp
 8048717:	5b                   	pop    %ebx
 8048718:	5d                   	pop    %ebp
 8048719:	c3                   	ret    
 804871a:	90                   	nop
 804871b:	90                   	nop

Disassembly of section .fini:

0804871c <_fini>:
 804871c:	53                   	push   %ebx
 804871d:	83 ec 08             	sub    $0x8,%esp
 8048720:	e8 00 00 00 00       	call   8048725 <_fini+0x9>
 8048725:	5b                   	pop    %ebx
 8048726:	81 c3 cf 15 00 00    	add    $0x15cf,%ebx
 804872c:	e8 9f fc ff ff       	call   80483d0 <__do_global_dtors_aux>
 8048731:	83 c4 08             	add    $0x8,%esp
 8048734:	5b                   	pop    %ebx
 8048735:	c3                   	ret    
